target datalayout = "e-m:e-p270:32:32-p271:32:32-p272:64:64-i64:64-i128:128-f80:128-n8:16:32:64-S128"
target triple = "x86_64-pc-linux-gnu"

%struct.dbd_acct_coord_msg_t = type { ptr, ptr }

@.str = private unnamed_addr constant [16 x i8] c"slurmdbd_pack.c\00", align 1
@__func__._unpack_acct_coord_msg = private unnamed_addr constant [23 x i8] c"_unpack_acct_coord_msg\00", align 1

; Function Attrs: nounwind uwtable
define internal i32 @_unpack_acct_coord_msg(ptr noundef %0, i16 noundef zeroext %1, ptr noundef %2) #0 {
  %4 = alloca i32, align 4
  %5 = alloca ptr, align 8
  %6 = alloca i16, align 2
  %7 = alloca ptr, align 8
  %8 = alloca i32, align 4
  %9 = alloca ptr, align 8
  %10 = alloca i32, align 4
  %11 = alloca ptr, align 8
  %12 = alloca i32, align 4
  %13 = alloca i32, align 4
  store ptr %0, ptr %5, align 8
  store i16 %1, ptr %6, align 2
  store ptr %2, ptr %7, align 8
  call void @llvm.lifetime.start.p0(i64 4, ptr %8) #5
  call void @llvm.lifetime.start.p0(i64 8, ptr %9) #5
  store ptr null, ptr %9, align 8
  call void @llvm.lifetime.start.p0(i64 4, ptr %10) #5
  store i32 0, ptr %10, align 4
  call void @llvm.lifetime.start.p0(i64 8, ptr %11) #5
  %14 = call ptr @slurm_xcalloc(i64 noundef 1, i64 noundef 16, i1 noundef zeroext true, i1 noundef zeroext false, ptr noundef @.str, i32 noundef 103, ptr noundef @__func__._unpack_acct_coord_msg)
  store ptr %14, ptr %11, align 8
  %15 = load ptr, ptr %11, align 8
  %16 = load ptr, ptr %5, align 8
  store ptr %15, ptr %16, align 8
  br label %17

17:                                               ; preds = %3
  %18 = load ptr, ptr %7, align 8
  %19 = call i32 @unpack32(ptr noundef %10, ptr noundef %18)
  %20 = icmp ne i32 %19, 0
  br i1 %20, label %21, label %22

21:                                               ; preds = %17
  br label %64

22:                                               ; preds = %17
  br label %23

23:                                               ; preds = %22
  br label %24

24:                                               ; preds = %23
  %25 = load i32, ptr %10, align 4
  %26 = icmp ne i32 %25, 0
  br i1 %26, label %27, label %55

27:                                               ; preds = %24
  %28 = call ptr @list_create(ptr noundef @xfree_ptr)
  %29 = load ptr, ptr %11, align 8
  %30 = getelementptr inbounds nuw %struct.dbd_acct_coord_msg_t, ptr %29, i32 0, i32 0
  store ptr %28, ptr %30, align 8
  store i32 0, ptr %8, align 4
  br label %31

31:                                               ; preds = %51, %27
  %32 = load i32, ptr %8, align 4
  %33 = load i32, ptr %10, align 4
  %34 = icmp ult i32 %32, %33
  br i1 %34, label %35, label %54

35:                                               ; preds = %31
  br label %36

36:                                               ; preds = %35
  call void @llvm.lifetime.start.p0(i64 4, ptr %12) #5
  %37 = load ptr, ptr %7, align 8
  %38 = call i32 @unpackstr_xmalloc_chooser(ptr noundef %9, ptr noundef %12, ptr noundef %37)
  %39 = icmp ne i32 %38, 0
  br i1 %39, label %40, label %41

40:                                               ; preds = %36
  store i32 4, ptr %13, align 4
  br label %42

41:                                               ; preds = %36
  store i32 0, ptr %13, align 4
  br label %42

42:                                               ; preds = %40, %41
  call void @llvm.lifetime.end.p0(i64 4, ptr %12) #5
  %43 = load i32, ptr %13, align 4
  switch i32 %43, label %67 [
    i32 0, label %44
    i32 4, label %64
  ]

44:                                               ; preds = %42
  br label %45

45:                                               ; preds = %44
  br label %46

46:                                               ; preds = %45
  %47 = load ptr, ptr %11, align 8
  %48 = getelementptr inbounds nuw %struct.dbd_acct_coord_msg_t, ptr %47, i32 0, i32 0
  %49 = load ptr, ptr %48, align 8
  %50 = load ptr, ptr %9, align 8
  call void @list_append(ptr noundef %49, ptr noundef %50)
  br label %51

51:                                               ; preds = %46
  %52 = load i32, ptr %8, align 4
  %53 = add nsw i32 %52, 1
  store i32 %53, ptr %8, align 4
  br label %31, !llvm.loop !11

54:                                               ; preds = %31
  br label %55

55:                                               ; preds = %54, %24
  %56 = load ptr, ptr %11, align 8
  %57 = getelementptr inbounds nuw %struct.dbd_acct_coord_msg_t, ptr %56, i32 0, i32 1
  %58 = load i16, ptr %6, align 2
  %59 = load ptr, ptr %7, align 8
  %60 = call i32 @slurmdb_unpack_user_cond(ptr noundef %57, i16 noundef zeroext %58, ptr noundef %59)
  %61 = icmp eq i32 %60, -1
  br i1 %61, label %62, label %63

62:                                               ; preds = %55
  br label %64

63:                                               ; preds = %55
  store i32 0, ptr %4, align 4
  store i32 1, ptr %13, align 4
  br label %67

64:                                               ; preds = %42, %62, %21
  %65 = load ptr, ptr %11, align 8
  call void @slurmdbd_free_acct_coord_msg(ptr noundef %65)
  %66 = load ptr, ptr %5, align 8
  store ptr null, ptr %66, align 8
  store i32 -1, ptr %4, align 4
  store i32 1, ptr %13, align 4
  br label %67

67:                                               ; preds = %64, %63, %42
  call void @llvm.lifetime.end.p0(i64 8, ptr %11) #5
  call void @llvm.lifetime.end.p0(i64 4, ptr %10) #5
  call void @llvm.lifetime.end.p0(i64 8, ptr %9) #5
  call void @llvm.lifetime.end.p0(i64 4, ptr %8) #5
  %68 = load i32, ptr %4, align 4
  ret i32 %68
}