; Function Attrs: nounwind uwtable
define internal fastcc range(i32 -1, 1) i32 @_unpack_acct_coord_msg(ptr noundef writeonly captures(none) initializes((0, 8)) %0, i16 noundef zeroext %1, ptr noundef %2) unnamed_addr #0 {
  %4 = alloca ptr, align 8
  %5 = alloca i32, align 4
  %6 = alloca i32, align 4
  call void @llvm.lifetime.start.p0(i64 8, ptr nonnull %4) #5
  store ptr null, ptr %4, align 8
  call void @llvm.lifetime.start.p0(i64 4, ptr nonnull %5) #5
  store i32 0, ptr %5, align 4
  %7 = tail call ptr @slurm_xcalloc(i64 noundef 1, i64 noundef 16, i1 noundef zeroext true, i1 noundef zeroext false, ptr noundef nonnull @.str, i32 noundef 103, ptr noundef nonnull @__func__._unpack_acct_coord_msg) #5
  store ptr %7, ptr %0, align 8
  %8 = call i32 @unpack32(ptr noundef nonnull %5, ptr noundef %2) #5
  %.not = icmp eq i32 %8, 0
  br i1 %.not, label %9, label %.loopexit18

9:                                                ; preds = %3
  %10 = load i32, ptr %5, align 4
  %.not16 = icmp eq i32 %10, 0
  br i1 %.not16, label %.loopexit, label %11

11:                                               ; preds = %9
  %12 = call ptr @list_create(ptr noundef nonnull @xfree_ptr) #5
  store ptr %12, ptr %7, align 8
  %13 = load i32, ptr %5, align 4
  %.not20 = icmp eq i32 %13, 0
  br i1 %.not20, label %.loopexit, label %.lr.ph

.lr.ph:                                           ; preds = %11, %15
  %.01519 = phi i32 [ %18, %15 ], [ 0, %11 ]
  call void @llvm.lifetime.start.p0(i64 4, ptr nonnull %6) #5
  %14 = call i32 @unpackstr_xmalloc_chooser(ptr noundef nonnull %4, ptr noundef nonnull %6, ptr noundef %2) #5
  %.not17 = icmp eq i32 %14, 0
  call void @llvm.lifetime.end.p0(i64 4, ptr nonnull %6) #5
  br i1 %.not17, label %15, label %.loopexit18

15:                                               ; preds = %.lr.ph
  %16 = load ptr, ptr %7, align 8
  %17 = load ptr, ptr %4, align 8
  call void @list_append(ptr noundef %16, ptr noundef %17) #5
  %18 = add nuw nsw i32 %.01519, 1
  %19 = load i32, ptr %5, align 4
  %20 = icmp ult i32 %18, %19
  br i1 %20, label %.lr.ph, label %.loopexit, !llvm.loop !13

.loopexit:                                        ; preds = %15, %11, %9
  %21 = getelementptr inbounds nuw i8, ptr %7, i64 8
  %22 = call i32 @slurmdb_unpack_user_cond(ptr noundef nonnull %21, i16 noundef zeroext %1, ptr noundef %2) #5
  %23 = icmp eq i32 %22, -1
  br i1 %23, label %.loopexit18, label %24

.loopexit18:                                      ; preds = %.lr.ph, %.loopexit, %3
  call void @slurmdbd_free_acct_coord_msg(ptr noundef %7) #5
  store ptr null, ptr %0, align 8
  br label %24

24:                                               ; preds = %.loopexit, %.loopexit18
  %.014 = phi i32 [ -1, %.loopexit18 ], [ 0, %.loopexit ]
  call void @llvm.lifetime.end.p0(i64 4, ptr nonnull %5) #5
  call void @llvm.lifetime.end.p0(i64 8, ptr nonnull %4) #5
  ret i32 %.014
}